target datalayout = "e-m:e-p270:32:32-p271:32:32-p272:64:64-i64:64-i128:128-f80:128-n8:16:32:64-S128"
target triple = "x86_64-pc-linux-gnu"

%struct.H5O_shared_t = type { i32, ptr, i32, %union.anon }
%union.anon = type { %struct.H5O_mesg_loc_t }
%struct.H5O_mesg_loc_t = type { i32, i64 }
%struct.H5O_fill_t = type { %struct.H5O_shared_t, i32, ptr, i64, ptr, i32, i32, i8 }

@.str.3 = private unnamed_addr constant [101 x i8] c"generated/home/dtcxzyw/WorkSpace/Projects/compilers/llvm-opt-benchmark/bench/hdf5/hdf5/src/H5Ofill.c\00", align 1
@H5E_OHDR_g = external global i64, align 8
@__func__.H5O_fill_convert = private unnamed_addr constant [17 x i8] c"H5O_fill_convert\00", align 1
@H5E_CANTINIT_g = external global i64, align 8
@.str.6 = private unnamed_addr constant [48 x i8] c"unable to convert between src and dst datatypes\00", align 1
@H5E_RESOURCE_g = external global i64, align 8
@H5E_NOSPACE_g = external global i64, align 8
@.str.7 = private unnamed_addr constant [45 x i8] c"memory allocation failed for type conversion\00", align 1
@.str.8 = private unnamed_addr constant [27 x i8] c"datatype conversion failed\00", align 1

; Function Attrs: nounwind uwtable
define i32 @H5O_fill_convert(ptr noundef %0, ptr noundef %1, ptr noundef %2) #0 {
  %4 = alloca ptr, align 8
  %5 = alloca ptr, align 8
  %6 = alloca ptr, align 8
  %7 = alloca ptr, align 8
  %8 = alloca ptr, align 8
  %9 = alloca ptr, align 8
  %10 = alloca i32, align 4
  %11 = alloca i8, align 1
  %12 = alloca i64, align 8
  store ptr %0, ptr %4, align 8
  store ptr %1, ptr %5, align 8
  store ptr %2, ptr %6, align 8
  store ptr null, ptr %8, align 8
  store ptr null, ptr %9, align 8
  store i32 0, ptr %10, align 4
  store i8 0, ptr %11, align 1
  %13 = load ptr, ptr %4, align 8
  %14 = getelementptr inbounds %struct.H5O_fill_t, ptr %13, i32 0, i32 4
  %15 = load ptr, ptr %14, align 8
  %16 = icmp ne ptr %15, null
  br i1 %16, label %17, label %29

17:                                               ; preds = %3
  %18 = load ptr, ptr %4, align 8
  %19 = getelementptr inbounds %struct.H5O_fill_t, ptr %18, i32 0, i32 2
  %20 = load ptr, ptr %19, align 8
  %21 = icmp ne ptr %20, null
  br i1 %21, label %22, label %29

22:                                               ; preds = %17
  %23 = load ptr, ptr %4, align 8
  %24 = getelementptr inbounds %struct.H5O_fill_t, ptr %23, i32 0, i32 2
  %25 = load ptr, ptr %24, align 8
  %26 = load ptr, ptr %5, align 8
  %27 = call i32 @H5T_cmp(ptr noundef %25, ptr noundef %26, i1 noundef zeroext false)
  %28 = icmp eq i32 0, %27
  br i1 %28, label %29, label %45

29:                                               ; preds = %22, %17, %3
  %30 = load ptr, ptr %4, align 8
  %31 = getelementptr inbounds %struct.H5O_fill_t, ptr %30, i32 0, i32 2
  %32 = load ptr, ptr %31, align 8
  %33 = icmp ne ptr %32, null
  br i1 %33, label %34, label %39

34:                                               ; preds = %29
  %35 = load ptr, ptr %4, align 8
  %36 = getelementptr inbounds %struct.H5O_fill_t, ptr %35, i32 0, i32 2
  %37 = load ptr, ptr %36, align 8
  %38 = call i32 @H5T_close_real(ptr noundef %37)
  br label %39

39:                                               ; preds = %34, %29
  %40 = load ptr, ptr %4, align 8
  %41 = getelementptr inbounds %struct.H5O_fill_t, ptr %40, i32 0, i32 2
  store ptr null, ptr %41, align 8
  %42 = load ptr, ptr %6, align 8
  store i8 1, ptr %42, align 1
  br label %43

43:                                               ; preds = %39
  store i32 0, ptr %10, align 4
  br label %186

44:                                               ; No predecessors!
  br label %45

45:                                               ; preds = %44, %22
  %46 = load ptr, ptr %4, align 8
  %47 = getelementptr inbounds %struct.H5O_fill_t, ptr %46, i32 0, i32 2
  %48 = load ptr, ptr %47, align 8
  %49 = load ptr, ptr %5, align 8
  %50 = call ptr @H5T_path_find(ptr noundef %48, ptr noundef %49)
  store ptr %50, ptr %7, align 8
  %51 = icmp eq ptr null, %50
  br i1 %51, label %52, label %67

52:                                               ; preds = %45
  br label %53

53:                                               ; preds = %52
  br label %54

54:                                               ; preds = %53
  br label %55

55:                                               ; preds = %54
  %56 = load i64, ptr @H5E_OHDR_g, align 8
  %57 = load i64, ptr @H5E_CANTINIT_g, align 8
  %58 = call i32 (ptr, ptr, i32, i64, i64, ptr, ...) @H5E_printf_stack(ptr noundef @.str.3, ptr noundef @__func__.H5O_fill_convert, i32 noundef 968, i64 noundef %56, i64 noundef %57, ptr noundef @.str.6)
  br label %59

59:                                               ; preds = %55
  store i8 1, ptr %11, align 1
  %60 = load i8, ptr %11, align 1
  %61 = trunc i8 %60 to i1
  %62 = zext i1 %61 to i8
  store i8 %62, ptr %11, align 1
  br label %63

63:                                               ; preds = %59
  br label %64

64:                                               ; preds = %63
  store i32 -1, ptr %10, align 4
  br label %186

65:                                               ; No predecessors!
  br label %66

66:                                               ; preds = %65
  br label %67

67:                                               ; preds = %66, %45
  %68 = load ptr, ptr %7, align 8
  %69 = call zeroext i1 @H5T_path_noop(ptr noundef %68)
  br i1 %69, label %185, label %70

70:                                               ; preds = %67
  %71 = load ptr, ptr %4, align 8
  %72 = getelementptr inbounds %struct.H5O_fill_t, ptr %71, i32 0, i32 2
  %73 = load ptr, ptr %72, align 8
  %74 = call i64 @H5T_get_size(ptr noundef %73)
  store i64 %74, ptr %12, align 8
  %75 = load i64, ptr %12, align 8
  %76 = load ptr, ptr %5, align 8
  %77 = call i64 @H5T_get_size(ptr noundef %76)
  %78 = icmp ugt i64 %75, %77
  br i1 %78, label %79, label %81

79:                                               ; preds = %70
  %80 = load i64, ptr %12, align 8
  br label %84

81:                                               ; preds = %70
  %82 = load ptr, ptr %5, align 8
  %83 = call i64 @H5T_get_size(ptr noundef %82)
  br label %84

84:                                               ; preds = %81, %79
  %85 = phi i64 [ %80, %79 ], [ %83, %81 ]
  %86 = call noalias ptr @malloc(i64 noundef %85) #7
  store ptr %86, ptr %8, align 8
  %87 = icmp eq ptr null, %86
  br i1 %87, label %88, label %103

88:                                               ; preds = %84
  br label %89

89:                                               ; preds = %88
  br label %90

90:                                               ; preds = %89
  br label %91

91:                                               ; preds = %90
  %92 = load i64, ptr @H5E_RESOURCE_g, align 8
  %93 = load i64, ptr @H5E_NOSPACE_g, align 8
  %94 = call i32 (ptr, ptr, i32, i64, i64, ptr, ...) @H5E_printf_stack(ptr noundef @.str.3, ptr noundef @__func__.H5O_fill_convert, i32 noundef 981, i64 noundef %92, i64 noundef %93, ptr noundef @.str.7)
  br label %95

95:                                               ; preds = %91
  store i8 1, ptr %11, align 1
  %96 = load i8, ptr %11, align 1
  %97 = trunc i8 %96 to i1
  %98 = zext i1 %97 to i8
  store i8 %98, ptr %11, align 1
  br label %99

99:                                               ; preds = %95
  br label %100

100:                                              ; preds = %99
  store i32 -1, ptr %10, align 4
  br label %186

101:                                              ; No predecessors!
  br label %102

102:                                              ; preds = %101
  br label %103

103:                                              ; preds = %102, %84
  %104 = load ptr, ptr %8, align 8
  %105 = load ptr, ptr %4, align 8
  %106 = getelementptr inbounds %struct.H5O_fill_t, ptr %105, i32 0, i32 4
  %107 = load ptr, ptr %106, align 8
  %108 = load i64, ptr %12, align 8
  call void @llvm.memcpy.p0.p0.i64(ptr align 1 %104, ptr align 1 %107, i64 %108, i1 false)
  %109 = load ptr, ptr %7, align 8
  %110 = call i32 @H5T_path_bkg(ptr noundef %109)
  %111 = icmp ne i32 %110, 0
  br i1 %111, label %112, label %132

112:                                              ; preds = %103
  %113 = load ptr, ptr %5, align 8
  %114 = call i64 @H5T_get_size(ptr noundef %113)
  %115 = call noalias ptr @calloc(i64 noundef 1, i64 noundef %114) #8
  store ptr %115, ptr %9, align 8
  %116 = icmp eq ptr null, %115
  br i1 %116, label %117, label %132

117:                                              ; preds = %112
  br label %118

118:                                              ; preds = %117
  br label %119

119:                                              ; preds = %118
  br label %120

120:                                              ; preds = %119
  %121 = load i64, ptr @H5E_RESOURCE_g, align 8
  %122 = load i64, ptr @H5E_NOSPACE_g, align 8
  %123 = call i32 (ptr, ptr, i32, i64, i64, ptr, ...) @H5E_printf_stack(ptr noundef @.str.3, ptr noundef @__func__.H5O_fill_convert, i32 noundef 987, i64 noundef %121, i64 noundef %122, ptr noundef @.str.7)
  br label %124

124:                                              ; preds = %120
  store i8 1, ptr %11, align 1
  %125 = load i8, ptr %11, align 1
  %126 = trunc i8 %125 to i1
  %127 = zext i1 %126 to i8
  store i8 %127, ptr %11, align 1
  br label %128

128:                                              ; preds = %124
  br label %129

129:                                              ; preds = %128
  store i32 -1, ptr %10, align 4
  br label %186

130:                                              ; No predecessors!
  br label %131

131:                                              ; preds = %130
  br label %132

132:                                              ; preds = %131, %112, %103
  %133 = load ptr, ptr %7, align 8
  %134 = load ptr, ptr %4, align 8
  %135 = getelementptr inbounds %struct.H5O_fill_t, ptr %134, i32 0, i32 2
  %136 = load ptr, ptr %135, align 8
  %137 = load ptr, ptr %5, align 8
  %138 = load ptr, ptr %8, align 8
  %139 = load ptr, ptr %9, align 8
  %140 = call i32 @H5T_convert(ptr noundef %133, ptr noundef %136, ptr noundef %137, i64 noundef 1, i64 noundef 0, i64 noundef 0, ptr noundef %138, ptr noundef %139)
  %141 = icmp slt i32 %140, 0
  br i1 %141, label %142, label %157

142:                                              ; preds = %132
  br label %143

143:                                              ; preds = %142
  br label %144

144:                                              ; preds = %143
  br label %145

145:                                              ; preds = %144
  %146 = load i64, ptr @H5E_OHDR_g, align 8
  %147 = load i64, ptr @H5E_CANTINIT_g, align 8
  %148 = call i32 (ptr, ptr, i32, i64, i64, ptr, ...) @H5E_printf_stack(ptr noundef @.str.3, ptr noundef @__func__.H5O_fill_convert, i32 noundef 991, i64 noundef %146, i64 noundef %147, ptr noundef @.str.8)
  br label %149

149:                                              ; preds = %145
  store i8 1, ptr %11, align 1
  %150 = load i8, ptr %11, align 1
  %151 = trunc i8 %150 to i1
  %152 = zext i1 %151 to i8
  store i8 %152, ptr %11, align 1
  br label %153

153:                                              ; preds = %149
  br label %154

154:                                              ; preds = %153
  store i32 -1, ptr %10, align 4
  br label %186

155:                                              ; No predecessors!
  br label %156

156:                                              ; preds = %155
  br label %157

157:                                              ; preds = %156, %132
  %158 = load ptr, ptr %4, align 8
  %159 = getelementptr inbounds %struct.H5O_fill_t, ptr %158, i32 0, i32 4
  %160 = load ptr, ptr %159, align 8
  %161 = load ptr, ptr %4, align 8
  %162 = getelementptr inbounds %struct.H5O_fill_t, ptr %161, i32 0, i32 2
  %163 = load ptr, ptr %162, align 8
  %164 = call i32 @H5T_vlen_reclaim_elmt(ptr noundef %160, ptr noundef %163)
  %165 = load ptr, ptr %4, align 8
  %166 = getelementptr inbounds %struct.H5O_fill_t, ptr %165, i32 0, i32 4
  %167 = load ptr, ptr %166, align 8
  %168 = call ptr @H5MM_xfree(ptr noundef %167)
  %169 = load ptr, ptr %8, align 8
  %170 = load ptr, ptr %4, align 8
  %171 = getelementptr inbounds %struct.H5O_fill_t, ptr %170, i32 0, i32 4
  store ptr %169, ptr %171, align 8
  %172 = load ptr, ptr %4, align 8
  %173 = getelementptr inbounds %struct.H5O_fill_t, ptr %172, i32 0, i32 2
  %174 = load ptr, ptr %173, align 8
  %175 = call i32 @H5T_close_real(ptr noundef %174)
  %176 = load ptr, ptr %4, align 8
  %177 = getelementptr inbounds %struct.H5O_fill_t, ptr %176, i32 0, i32 2
  store ptr null, ptr %177, align 8
  br label %178

178:                                              ; preds = %157
  %179 = load ptr, ptr %5, align 8
  %180 = call i64 @H5T_get_size(ptr noundef %179)
  %181 = load ptr, ptr %4, align 8
  %182 = getelementptr inbounds %struct.H5O_fill_t, ptr %181, i32 0, i32 3
  store i64 %180, ptr %182, align 8
  br label %183

183:                                              ; preds = %178
  %184 = load ptr, ptr %6, align 8
  store i8 1, ptr %184, align 1
  br label %185

185:                                              ; preds = %183, %67
  br label %186

186:                                              ; preds = %185, %154, %129, %100, %64, %43
  %187 = load ptr, ptr %9, align 8
  %188 = icmp ne ptr %187, null
  br i1 %188, label %189, label %192

189:                                              ; preds = %186
  %190 = load ptr, ptr %9, align 8
  %191 = call ptr @H5MM_xfree(ptr noundef %190)
  br label %192

192:                                              ; preds = %189, %186
  %193 = load i32, ptr %10, align 4
  ret i32 %193
}