; Function Attrs: nounwind uwtable
define range(i32 -1, 1) i32 @H5O_fill_convert(ptr nocapture noundef %0, ptr noundef %1, ptr nocapture noundef writeonly %2) local_unnamed_addr #0 {
  %4 = getelementptr inbounds i8, ptr %0, i64 64
  %5 = load ptr, ptr %4, align 8
  %.not = icmp eq ptr %5, null
  br i1 %.not, label %12, label %6

6:                                                ; preds = %3
  %7 = getelementptr inbounds i8, ptr %0, i64 48
  %8 = load ptr, ptr %7, align 8
  %.not50 = icmp eq ptr %8, null
  br i1 %.not50, label %12, label %9

9:                                                ; preds = %6
  %10 = tail call i32 @H5T_cmp(ptr noundef nonnull %8, ptr noundef %1, i1 noundef zeroext false) #8
  %11 = icmp eq i32 %10, 0
  br i1 %11, label %12, label %18

12:                                               ; preds = %9, %6, %3
  %13 = getelementptr inbounds i8, ptr %0, i64 48
  %14 = load ptr, ptr %13, align 8
  %.not52 = icmp eq ptr %14, null
  br i1 %.not52, label %17, label %15

15:                                               ; preds = %12
  %16 = tail call i32 @H5T_close_real(ptr noundef nonnull %14) #8
  br label %17

17:                                               ; preds = %15, %12
  store ptr null, ptr %13, align 8
  store i8 1, ptr %2, align 1
  br label %.thread

18:                                               ; preds = %9
  %19 = load ptr, ptr %7, align 8
  %20 = tail call ptr @H5T_path_find(ptr noundef %19, ptr noundef %1) #8
  %21 = icmp eq ptr %20, null
  br i1 %21, label %22, label %26

22:                                               ; preds = %18
  %23 = load i64, ptr @H5E_OHDR_g, align 8
  %24 = load i64, ptr @H5E_CANTINIT_g, align 8
  %25 = tail call i32 (ptr, ptr, i32, i64, i64, ptr, ...) @H5E_printf_stack(ptr noundef nonnull @.str.3, ptr noundef nonnull @__func__.H5O_fill_convert, i32 noundef 968, i64 noundef %23, i64 noundef %24, ptr noundef nonnull @.str.6) #8
  br label %.thread

26:                                               ; preds = %18
  %27 = tail call zeroext i1 @H5T_path_noop(ptr noundef nonnull %20) #8
  br i1 %27, label %.thread, label %28

28:                                               ; preds = %26
  %29 = load ptr, ptr %7, align 8
  %30 = tail call i64 @H5T_get_size(ptr noundef %29) #8
  %31 = tail call i64 @H5T_get_size(ptr noundef %1) #8
  %32 = icmp ugt i64 %30, %31
  br i1 %32, label %35, label %33

33:                                               ; preds = %28
  %34 = tail call i64 @H5T_get_size(ptr noundef %1) #8
  br label %35

35:                                               ; preds = %28, %33
  %36 = phi i64 [ %34, %33 ], [ %30, %28 ]
  %37 = tail call noalias ptr @malloc(i64 noundef %36) #9
  %38 = icmp eq ptr %37, null
  br i1 %38, label %39, label %43

39:                                               ; preds = %35
  %40 = load i64, ptr @H5E_RESOURCE_g, align 8
  %41 = load i64, ptr @H5E_NOSPACE_g, align 8
  %42 = tail call i32 (ptr, ptr, i32, i64, i64, ptr, ...) @H5E_printf_stack(ptr noundef nonnull @.str.3, ptr noundef nonnull @__func__.H5O_fill_convert, i32 noundef 981, i64 noundef %40, i64 noundef %41, ptr noundef nonnull @.str.7) #8
  br label %.thread

43:                                               ; preds = %35
  %44 = load ptr, ptr %4, align 8
  tail call void @llvm.memcpy.p0.p0.i64(ptr nonnull align 1 %37, ptr align 1 %44, i64 %30, i1 false)
  %45 = tail call i32 @H5T_path_bkg(ptr noundef nonnull %20) #8
  %.not51 = icmp eq i32 %45, 0
  br i1 %.not51, label %54, label %46

46:                                               ; preds = %43
  %47 = tail call i64 @H5T_get_size(ptr noundef %1) #8
  %48 = tail call noalias ptr @calloc(i64 noundef 1, i64 noundef %47) #10
  %49 = icmp eq ptr %48, null
  br i1 %49, label %50, label %54

50:                                               ; preds = %46
  %51 = load i64, ptr @H5E_RESOURCE_g, align 8
  %52 = load i64, ptr @H5E_NOSPACE_g, align 8
  %53 = tail call i32 (ptr, ptr, i32, i64, i64, ptr, ...) @H5E_printf_stack(ptr noundef nonnull @.str.3, ptr noundef nonnull @__func__.H5O_fill_convert, i32 noundef 987, i64 noundef %51, i64 noundef %52, ptr noundef nonnull @.str.7) #8
  br label %.thread

54:                                               ; preds = %46, %43
  %.042 = phi ptr [ %48, %46 ], [ null, %43 ]
  %55 = load ptr, ptr %7, align 8
  %56 = tail call i32 @H5T_convert(ptr noundef nonnull %20, ptr noundef %55, ptr noundef %1, i64 noundef 1, i64 noundef 0, i64 noundef 0, ptr noundef nonnull %37, ptr noundef %.042) #8
  %57 = icmp slt i32 %56, 0
  br i1 %57, label %58, label %62

58:                                               ; preds = %54
  %59 = load i64, ptr @H5E_OHDR_g, align 8
  %60 = load i64, ptr @H5E_CANTINIT_g, align 8
  %61 = tail call i32 (ptr, ptr, i32, i64, i64, ptr, ...) @H5E_printf_stack(ptr noundef nonnull @.str.3, ptr noundef nonnull @__func__.H5O_fill_convert, i32 noundef 991, i64 noundef %59, i64 noundef %60, ptr noundef nonnull @.str.8) #8
  br label %72

62:                                               ; preds = %54
  %63 = load ptr, ptr %4, align 8
  %64 = load ptr, ptr %7, align 8
  %65 = tail call i32 @H5T_vlen_reclaim_elmt(ptr noundef %63, ptr noundef %64) #8
  %66 = load ptr, ptr %4, align 8
  %67 = tail call ptr @H5MM_xfree(ptr noundef %66) #8
  store ptr %37, ptr %4, align 8
  %68 = load ptr, ptr %7, align 8
  %69 = tail call i32 @H5T_close_real(ptr noundef %68) #8
  store ptr null, ptr %7, align 8
  %70 = tail call i64 @H5T_get_size(ptr noundef %1) #8
  %71 = getelementptr inbounds i8, ptr %0, i64 56
  store i64 %70, ptr %71, align 8
  store i8 1, ptr %2, align 1
  br label %72

72:                                               ; preds = %62, %58
  %.0 = phi i32 [ -1, %58 ], [ 0, %62 ]
  %.not53 = icmp eq ptr %.042, null
  br i1 %.not53, label %.thread, label %73

73:                                               ; preds = %72
  %74 = tail call ptr @H5MM_xfree(ptr noundef nonnull %.042) #8
  br label %.thread

.thread:                                          ; preds = %50, %39, %26, %22, %17, %73, %72
  %.057 = phi i32 [ %.0, %73 ], [ %.0, %72 ], [ -1, %50 ], [ -1, %39 ], [ 0, %26 ], [ -1, %22 ], [ 0, %17 ]
  ret i32 %.057
}